(lp0
S'faces/abhimanyu/0.jpg'
p1
aI0
a.(lp0
S'faces/abhimanyu/1.jpg'
p1
aI0
a.(lp0
S'faces/abhimanyu/10.jpg'
p1
aI0
a.(lp0
S'faces/abhimanyu/11.jpg'
p1
aI0
a.(lp0
S'faces/abhimanyu/12.jpg'
p1
aI0
a.(lp0
S'faces/abhimanyu/13.jpg'
p1
aI0
a.(lp0
S'faces/abhimanyu/14.jpg'
p1
aI0
a.(lp0
S'faces/abhimanyu/15.jpg'
p1
aI0
a.(lp0
S'faces/abhimanyu/16.jpg'
p1
aI0
a.(lp0
S'faces/abhimanyu/17.jpg'
p1
aI0
a.(lp0
S'faces/abhimanyu/18.jpg'
p1
aI0
a.(lp0
S'faces/abhimanyu/19.jpg'
p1
aI0
a.(lp0
S'faces/abhimanyu/2.jpg'
p1
aI0
a.(lp0
S'faces/abhimanyu/3.jpg'
p1
aI0
a.(lp0
S'faces/abhimanyu/4.jpg'
p1
aI0
a.(lp0
S'faces/abhimanyu/5.jpg'
p1
aI0
a.(lp0
S'faces/abhimanyu/6.jpg'
p1
aI0
a.(lp0
S'faces/abhimanyu/7.jpg'
p1
aI0
a.(lp0
S'faces/abhimanyu/8.jpg'
p1
aI0
a.(lp0
S'faces/abhimanyu/9.jpg'
p1
aI0
a.(lp0
S'faces/hemanth/0.jpg'
p1
aI1
a.(lp0
S'faces/hemanth/1.jpg'
p1
aI1
a.(lp0
S'faces/hemanth/10.jpg'
p1
aI1
a.(lp0
S'faces/hemanth/11.jpg'
p1
aI1
a.(lp0
S'faces/hemanth/12.jpg'
p1
aI1
a.(lp0
S'faces/hemanth/13.jpg'
p1
aI1
a.(lp0
S'faces/hemanth/17.jpg'
p1
aI1
a.(lp0
S'faces/hemanth/18.jpg'
p1
aI1
a.(lp0
S'faces/hemanth/19.jpg'
p1
aI1
a.(lp0
S'faces/hemanth/2.jpg'
p1
aI1
a.(lp0
S'faces/hemanth/3.jpg'
p1
aI1
a.(lp0
S'faces/hemanth/4.jpg'
p1
aI1
a.(lp0
S'faces/hemanth/5.jpg'
p1
aI1
a.(lp0
S'faces/hemanth/6.jpg'
p1
aI1
a.(lp0
S'faces/hemanth/7.jpg'
p1
aI1
a.(lp0
S'faces/subbu/1.jpg'
p1
aI2
a.(lp0
S'faces/subbu/10.jpg'
p1
aI2
a.(lp0
S'faces/subbu/11.jpg'
p1
aI2
a.(lp0
S'faces/subbu/12.jpg'
p1
aI2
a.(lp0
S'faces/subbu/13.jpg'
p1
aI2
a.(lp0
S'faces/subbu/14.jpg'
p1
aI2
a.(lp0
S'faces/subbu/16.jpg'
p1
aI2
a.(lp0
S'faces/subbu/17.jpg'
p1
aI2
a.(lp0
S'faces/subbu/18.jpg'
p1
aI2
a.(lp0
S'faces/subbu/19.jpg'
p1
aI2
a.(lp0
S'faces/subbu/2.jpg'
p1
aI2
a.(lp0
S'faces/subbu/3.jpg'
p1
aI2
a.(lp0
S'faces/subbu/4.jpg'
p1
aI2
a.(lp0
S'faces/subbu/5.jpg'
p1
aI2
a.(lp0
S'faces/subbu/6.jpg'
p1
aI2
a.(lp0
S'faces/subbu/7.jpg'
p1
aI2
a.(lp0
S'faces/subbu/8.jpg'
p1
aI2
a.(lp0
S'faces/subbu/9.jpg'
p1
aI2
a.(lp0
S'faces/vamsi/0.jpg'
p1
aI3
a.(lp0
S'faces/vamsi/1.jpg'
p1
aI3
a.(lp0
S'faces/vamsi/10.jpg'
p1
aI3
a.(lp0
S'faces/vamsi/11.jpg'
p1
aI3
a.(lp0
S'faces/vamsi/12.jpg'
p1
aI3
a.(lp0
S'faces/vamsi/13.jpg'
p1
aI3
a.(lp0
S'faces/vamsi/14.jpg'
p1
aI3
a.(lp0
S'faces/vamsi/15.jpg'
p1
aI3
a.(lp0
S'faces/vamsi/16.jpg'
p1
aI3
a.(lp0
S'faces/vamsi/17.jpg'
p1
aI3
a.(lp0
S'faces/vamsi/18.jpg'
p1
aI3
a.(lp0
S'faces/vamsi/19.jpg'
p1
aI3
a.(lp0
S'faces/vamsi/2.jpg'
p1
aI3
a.(lp0
S'faces/vamsi/3.jpg'
p1
aI3
a.(lp0
S'faces/vamsi/4.jpg'
p1
aI3
a.(lp0
S'faces/vamsi/5.jpg'
p1
aI3
a.(lp0
S'faces/vamsi/6.jpg'
p1
aI3
a.(lp0
S'faces/vamsi/7.jpg'
p1
aI3
a.(lp0
S'faces/vamsi/8.jpg'
p1
aI3
a.(lp0
S'faces/vamsi/9.jpg'
p1
aI3
a.